; Function Attrs: mustprogress uwtable
define hidden void @_ZN6spacer14convex_closure11kernel2fmlsER10ref_vectorI4expr11ast_managerE(ptr noundef nonnull align 8 dereferenceable(240) %0, ptr noundef nonnull align 8 dereferenceable(16) %1) local_unnamed_addr #3 align 2 personality ptr @__gxx_personality_v0 {
  %3 = alloca %class.obj_ref, align 8
  %4 = getelementptr inbounds nuw i8, ptr %0, i64 160
  call void @llvm.lifetime.start.p0(i64 16, ptr nonnull %3) #21
  %5 = getelementptr inbounds nuw i8, ptr %0, i64 32
  %6 = load ptr, ptr %5, align 8, !tbaa !8
  store ptr null, ptr %3, align 8, !tbaa !79
  %7 = getelementptr inbounds nuw i8, ptr %3, i64 8
  store ptr %6, ptr %7, align 8, !tbaa !3
  %8 = load i32, ptr %4, align 8, !tbaa !61
  %.not9 = icmp eq i32 %8, 0
  br i1 %.not9, label %_ZN7obj_refI4expr11ast_managerED2Ev.exit, label %.lr.ph

.lr.ph:                                           ; preds = %2
  %9 = getelementptr inbounds nuw i8, ptr %0, i64 168
  %10 = getelementptr inbounds nuw i8, ptr %1, i64 8
  %11 = zext i32 %8 to i64
  br label %22

._crit_edge:                                      ; preds = %41
  %.pre = load ptr, ptr %3, align 8, !tbaa !79
  %.not.i.i = icmp eq ptr %.pre, null
  br i1 %.not.i.i, label %_ZN7obj_refI4expr11ast_managerED2Ev.exit, label %12

12:                                               ; preds = %._crit_edge
  %13 = load ptr, ptr %7, align 8, !tbaa !90
  %14 = getelementptr inbounds nuw i8, ptr %.pre, i64 8
  %15 = load i32, ptr %14, align 4, !tbaa !54
  %16 = add i32 %15, -1
  store i32 %16, ptr %14, align 4, !tbaa !54
  %17 = icmp eq i32 %16, 0
  br i1 %17, label %18, label %_ZN7obj_refI4expr11ast_managerED2Ev.exit

18:                                               ; preds = %12
  invoke void @_ZN11ast_manager11delete_nodeEP3ast(ptr noundef nonnull align 8 dereferenceable(976) %13, ptr noundef nonnull %.pre)
          to label %_ZN7obj_refI4expr11ast_managerED2Ev.exit unwind label %19

19:                                               ; preds = %18
  %20 = landingpad { ptr, i32 }
          catch ptr null
  %21 = extractvalue { ptr, i32 } %20, 0
  call void @__clang_call_terminate(ptr %21) #22
  unreachable

_ZN7obj_refI4expr11ast_managerED2Ev.exit:         ; preds = %2, %._crit_edge, %12, %18
  call void @llvm.lifetime.end.p0(i64 16, ptr nonnull %3) #21
  ret void

22:                                               ; preds = %.lr.ph, %41
  %indvars.iv = phi i64 [ %11, %.lr.ph ], [ %23, %41 ]
  %23 = add nsw i64 %indvars.iv, -1
  %24 = load ptr, ptr %9, align 8, !tbaa !59
  %25 = getelementptr inbounds nuw %class.vector.35, ptr %24, i64 %23
  invoke void @_ZN6spacer14convex_closure13kernel_row2eqERK6vectorI8rationalLb1EjER7obj_refI4expr11ast_managerE(ptr noundef nonnull align 8 dereferenceable(240) %0, ptr noundef nonnull align 8 dereferenceable(8) %25, ptr noundef nonnull align 8 dereferenceable(16) %3)
          to label %26 unwind label %48

26:                                               ; preds = %22
  %27 = load ptr, ptr %3, align 8, !tbaa !79
  %.not.i.i.i.i = icmp eq ptr %27, null
  br i1 %.not.i.i.i.i, label %_ZN15ref_vector_coreI4expr19ref_manager_wrapperIS0_11ast_managerEE7inc_refEPS0_.exit.i, label %28

28:                                               ; preds = %26
  %29 = getelementptr inbounds nuw i8, ptr %27, i64 8
  %30 = load i32, ptr %29, align 4, !tbaa !54
  %31 = add i32 %30, 1
  store i32 %31, ptr %29, align 4, !tbaa !54
  br label %_ZN15ref_vector_coreI4expr19ref_manager_wrapperIS0_11ast_managerEE7inc_refEPS0_.exit.i

_ZN15ref_vector_coreI4expr19ref_manager_wrapperIS0_11ast_managerEE7inc_refEPS0_.exit.i: ; preds = %28, %26
  %32 = load ptr, ptr %10, align 8, !tbaa !48
  %33 = icmp eq ptr %32, null
  br i1 %33, label %40, label %34

34:                                               ; preds = %_ZN15ref_vector_coreI4expr19ref_manager_wrapperIS0_11ast_managerEE7inc_refEPS0_.exit.i
  %35 = getelementptr inbounds i8, ptr %32, i64 -4
  %36 = load i32, ptr %35, align 4, !tbaa !50
  %37 = getelementptr inbounds i8, ptr %32, i64 -8
  %38 = load i32, ptr %37, align 4, !tbaa !50
  %39 = icmp eq i32 %36, %38
  br i1 %39, label %40, label %41

40:                                               ; preds = %34, %_ZN15ref_vector_coreI4expr19ref_manager_wrapperIS0_11ast_managerEE7inc_refEPS0_.exit.i
  invoke void @_ZN6vectorIP4exprLb0EjE13expand_vectorEv(ptr noundef nonnull align 8 dereferenceable(8) %10)
          to label %.noexc unwind label %48

.noexc:                                           ; preds = %40
  %.pre.i.i = load ptr, ptr %10, align 8, !tbaa !48
  %.phi.trans.insert.i.i = getelementptr inbounds i8, ptr %.pre.i.i, i64 -4
  %.pre2.i.i = load i32, ptr %.phi.trans.insert.i.i, align 4, !tbaa !50
  br label %41

41:                                               ; preds = %.noexc, %34
  %42 = phi i32 [ %.pre2.i.i, %.noexc ], [ %36, %34 ]
  %43 = phi ptr [ %.pre.i.i, %.noexc ], [ %32, %34 ]
  %44 = getelementptr inbounds i8, ptr %43, i64 -4
  %45 = zext i32 %42 to i64
  %46 = getelementptr inbounds nuw ptr, ptr %43, i64 %45
  store ptr %27, ptr %46, align 8, !tbaa !51
  %47 = add i32 %42, 1
  store i32 %47, ptr %44, align 4, !tbaa !50
  %.not.wide = icmp eq i64 %23, 0
  br i1 %.not.wide, label %._crit_edge, label %22, !llvm.loop !109

48:                                               ; preds = %40, %22
  %49 = landingpad { ptr, i32 }
          cleanup
  call void @_ZN7obj_refI4expr11ast_managerED2Ev(ptr noundef nonnull align 8 dereferenceable(16) %3) #21
  call void @llvm.lifetime.end.p0(i64 16, ptr nonnull %3) #21
  resume { ptr, i32 } %49
}